target datalayout = "e-m:e-p270:32:32-p271:32:32-p272:64:64-i64:64-i128:128-f80:128-n8:16:32:64-S128"
target triple = "x86_64-pc-linux-gnu"

%struct.evp_cipher_ctx_st = type { ptr, ptr, i32, i32, [16 x i8], [16 x i8], [32 x i8], i32, ptr, i32, i32, i64, ptr, i32, i32, [32 x i8], i64, ptr, ptr }
%struct.evp_cipher_st = type { i32, i32, i32, i32, i64, i32, ptr, ptr, ptr, i32, ptr, ptr, ptr, ptr, i32, ptr, ptr, ptr, %struct.CRYPTO_REF_COUNT, ptr, ptr, ptr, ptr, ptr, ptr, ptr, ptr, ptr, ptr, ptr, ptr, ptr, ptr, ptr, ptr, ptr, ptr, ptr, ptr }
%struct.CRYPTO_REF_COUNT = type { i32 }
%struct.ossl_param_st = type { ptr, i32, ptr, i64, i64 }

@.str.4 = private unnamed_addr constant [8 x i8] c"padding\00", align 1

; Function Attrs: nounwind uwtable
define i32 @EVP_CIPHER_CTX_set_padding(ptr noundef %0, i32 noundef %1) #0 {
  %3 = alloca i32, align 4
  %4 = alloca ptr, align 8
  %5 = alloca i32, align 4
  %6 = alloca i32, align 4
  %7 = alloca [2 x %struct.ossl_param_st], align 16
  %8 = alloca i32, align 4
  %9 = alloca i32, align 4
  %10 = alloca %struct.ossl_param_st, align 8
  store ptr %0, ptr %4, align 8, !tbaa !3
  store i32 %1, ptr %5, align 4, !tbaa !29
  call void @llvm.lifetime.start.p0(i64 4, ptr %6) #9
  call void @llvm.lifetime.start.p0(i64 80, ptr %7) #9
  call void @llvm.memset.p0.i64(ptr align 16 %7, i8 0, i64 80, i1 false)
  call void @llvm.lifetime.start.p0(i64 4, ptr %8) #9
  %11 = load i32, ptr %5, align 4, !tbaa !29
  store i32 %11, ptr %8, align 4, !tbaa !29
  %12 = load i32, ptr %5, align 4, !tbaa !29
  %13 = icmp ne i32 %12, 0
  br i1 %13, label %14, label %19

14:                                               ; preds = %2
  %15 = load ptr, ptr %4, align 8, !tbaa !3
  %16 = getelementptr inbounds nuw %struct.evp_cipher_ctx_st, ptr %15, i32 0, i32 11
  %17 = load i64, ptr %16, align 8, !tbaa !37
  %18 = and i64 %17, -257
  store i64 %18, ptr %16, align 8, !tbaa !37
  br label %24

19:                                               ; preds = %2
  %20 = load ptr, ptr %4, align 8, !tbaa !3
  %21 = getelementptr inbounds nuw %struct.evp_cipher_ctx_st, ptr %20, i32 0, i32 11
  %22 = load i64, ptr %21, align 8, !tbaa !37
  %23 = or i64 %22, 256
  store i64 %23, ptr %21, align 8, !tbaa !37
  br label %24

24:                                               ; preds = %19, %14
  %25 = load ptr, ptr %4, align 8, !tbaa !3
  %26 = getelementptr inbounds nuw %struct.evp_cipher_ctx_st, ptr %25, i32 0, i32 0
  %27 = load ptr, ptr %26, align 8, !tbaa !8
  %28 = icmp ne ptr %27, null
  br i1 %28, label %29, label %37

29:                                               ; preds = %24
  %30 = load ptr, ptr %4, align 8, !tbaa !3
  %31 = getelementptr inbounds nuw %struct.evp_cipher_ctx_st, ptr %30, i32 0, i32 0
  %32 = load ptr, ptr %31, align 8, !tbaa !8
  %33 = getelementptr inbounds nuw %struct.evp_cipher_st, ptr %32, i32 0, i32 17
  %34 = load ptr, ptr %33, align 8, !tbaa !14
  %35 = icmp eq ptr %34, null
  br i1 %35, label %36, label %37

36:                                               ; preds = %29
  store i32 1, ptr %3, align 4
  store i32 1, ptr %9, align 4
  br label %50

37:                                               ; preds = %29, %24
  %38 = getelementptr inbounds [2 x %struct.ossl_param_st], ptr %7, i64 0, i64 0
  call void @llvm.lifetime.start.p0(i64 40, ptr %10) #9
  call void @OSSL_PARAM_construct_uint(ptr dead_on_unwind writable sret(%struct.ossl_param_st) align 8 %10, ptr noundef @.str.4, ptr noundef %8)
  call void @llvm.memcpy.p0.p0.i64(ptr align 16 %38, ptr align 8 %10, i64 40, i1 false), !tbaa.struct !82
  call void @llvm.lifetime.end.p0(i64 40, ptr %10) #9
  %39 = load ptr, ptr %4, align 8, !tbaa !3
  %40 = getelementptr inbounds nuw %struct.evp_cipher_ctx_st, ptr %39, i32 0, i32 0
  %41 = load ptr, ptr %40, align 8, !tbaa !8
  %42 = load ptr, ptr %4, align 8, !tbaa !3
  %43 = getelementptr inbounds nuw %struct.evp_cipher_ctx_st, ptr %42, i32 0, i32 17
  %44 = load ptr, ptr %43, align 8, !tbaa !19
  %45 = getelementptr inbounds [2 x %struct.ossl_param_st], ptr %7, i64 0, i64 0
  %46 = call i32 @evp_do_ciph_ctx_setparams(ptr noundef %41, ptr noundef %44, ptr noundef %45)
  store i32 %46, ptr %6, align 4, !tbaa !29
  %47 = load i32, ptr %6, align 4, !tbaa !29
  %48 = icmp ne i32 %47, 0
  %49 = zext i1 %48 to i32
  store i32 %49, ptr %3, align 4
  store i32 1, ptr %9, align 4
  br label %50

50:                                               ; preds = %37, %36
  call void @llvm.lifetime.end.p0(i64 4, ptr %8) #9
  call void @llvm.lifetime.end.p0(i64 80, ptr %7) #9
  call void @llvm.lifetime.end.p0(i64 4, ptr %6) #9
  %51 = load i32, ptr %3, align 4
  ret i32 %51
}