; Function Attrs: nounwind uwtable
define range(i32 0, 2) i32 @EVP_CIPHER_CTX_set_padding(ptr noundef captures(none) %0, i32 noundef %1) local_unnamed_addr #0 {
  %3 = alloca [2 x %struct.ossl_param_st], align 16
  %4 = alloca i32, align 4
  call void @llvm.lifetime.start.p0(i64 80, ptr nonnull %3) #10
  call void @llvm.memset.p0.i64(ptr noundef nonnull align 16 dereferenceable(80) %3, i8 0, i64 80, i1 false)
  call void @llvm.lifetime.start.p0(i64 4, ptr nonnull %4) #10
  store i32 %1, ptr %4, align 4, !tbaa !35
  %.not = icmp eq i32 %1, 0
  %5 = getelementptr inbounds nuw i8, ptr %0, i64 112
  %6 = load i64, ptr %5, align 8, !tbaa !28
  %7 = and i64 %6, -257
  %masksel = select i1 %.not, i64 256, i64 0
  %.sink = or disjoint i64 %7, %masksel
  store i64 %.sink, ptr %5, align 8, !tbaa !28
  %8 = load ptr, ptr %0, align 8, !tbaa !3
  %.not10 = icmp eq ptr %8, null
  br i1 %.not10, label %13, label %9

9:                                                ; preds = %2
  %10 = getelementptr inbounds nuw i8, ptr %8, i64 120
  %11 = load ptr, ptr %10, align 8, !tbaa !12
  %12 = icmp eq ptr %11, null
  br i1 %12, label %20, label %13

13:                                               ; preds = %9, %2
  call void @OSSL_PARAM_construct_uint(ptr dead_on_unwind nonnull writable sret(%struct.ossl_param_st) align 8 %3, ptr noundef nonnull @.str.4, ptr noundef nonnull %4) #10
  %14 = load ptr, ptr %0, align 8, !tbaa !3
  %15 = getelementptr inbounds nuw i8, ptr %0, i64 176
  %16 = load ptr, ptr %15, align 8, !tbaa !17
  %17 = call i32 @evp_do_ciph_ctx_setparams(ptr noundef %14, ptr noundef %16, ptr noundef nonnull %3) #10
  %18 = icmp ne i32 %17, 0
  %19 = zext i1 %18 to i32
  br label %20

20:                                               ; preds = %9, %13
  %.0 = phi i32 [ %19, %13 ], [ 1, %9 ]
  call void @llvm.lifetime.end.p0(i64 4, ptr nonnull %4) #10
  call void @llvm.lifetime.end.p0(i64 80, ptr nonnull %3) #10
  ret i32 %.0
}